target datalayout = "e-m:e-p270:32:32-p271:32:32-p272:64:64-i64:64-i128:128-f80:128-n8:16:32:64-S128"
target triple = "x86_64-pc-linux-gnu"

%struct.hwloc_topology = type { i32, i32, i32, ptr, ptr, i64, [20 x i32], [20 x i32], i64, i64, i32, ptr, i64, ptr, i64, [6 x %struct.hwloc_special_level_s], ptr, ptr, %struct.hwloc_binding_hooks, %struct.hwloc_topology_support, %struct.hwloc_infos_s, ptr, ptr, i32, ptr, ptr, i32, i32, ptr, i32, i32, ptr, i32, i32, i32, [5 x float], i32, ptr, ptr, i32, i32, ptr, i32, %struct.hwloc_numanode_attr_s, i32, i32, ptr, i64, i32, ptr, ptr, ptr }
%struct.hwloc_special_level_s = type { i32, ptr, ptr, ptr }
%struct.hwloc_binding_hooks = type { ptr, ptr, ptr, ptr, ptr, ptr, ptr, ptr, ptr, ptr, ptr, ptr, ptr, ptr, ptr, ptr, ptr, ptr, ptr, ptr, ptr, ptr, ptr, ptr }
%struct.hwloc_topology_support = type { ptr, ptr, ptr, ptr }
%struct.hwloc_infos_s = type { ptr, i32, i32 }
%struct.hwloc_numanode_attr_s = type { i64, i32, ptr }
%struct.hwloc_internal_cpukind_s = type { ptr, i32, i32, i64, %struct.hwloc_infos_s }
%struct.hwloc_obj = type { i32, ptr, i32, ptr, i64, ptr, i32, i32, ptr, ptr, ptr, i32, ptr, ptr, i32, ptr, ptr, ptr, i32, i32, ptr, i32, ptr, i32, ptr, ptr, ptr, ptr, ptr, %struct.hwloc_infos_s, ptr, i64 }

; Function Attrs: inlinehint nounwind willreturn memory(read) uwtable
define internal ptr @hwloc_get_root_obj(ptr noundef %0) #6 {
  %2 = alloca ptr, align 8
  store ptr %0, ptr %2, align 8, !tbaa !3
  %3 = load ptr, ptr %2, align 8, !tbaa !3
  %4 = call ptr @hwloc_get_obj_by_depth(ptr noundef %3, i32 noundef 0, i32 noundef 0) #16
  ret ptr %4
}

; Function Attrs: nounwind uwtable
define hidden void @hwloc_internal_cpukinds_restrict(ptr noundef %0) #0 {
  %2 = alloca ptr, align 8
  %3 = alloca i32, align 4
  %4 = alloca i32, align 4
  %5 = alloca ptr, align 8
  store ptr %0, ptr %2, align 8, !tbaa !3
  call void @llvm.lifetime.start.p0(i64 4, ptr %3) #14
  call void @llvm.lifetime.start.p0(i64 4, ptr %4) #14
  store i32 0, ptr %4, align 4, !tbaa !35
  store i32 0, ptr %3, align 4, !tbaa !35
  br label %6

6:                                                ; preds = %59, %1
  %7 = load i32, ptr %3, align 4, !tbaa !35
  %8 = load ptr, ptr %2, align 8, !tbaa !3
  %9 = getelementptr inbounds nuw %struct.hwloc_topology, ptr %8, i32 0, i32 29
  %10 = load i32, ptr %9, align 8, !tbaa !33
  %11 = icmp ult i32 %7, %10
  br i1 %11, label %12, label %62

12:                                               ; preds = %6
  call void @llvm.lifetime.start.p0(i64 8, ptr %5) #14
  %13 = load ptr, ptr %2, align 8, !tbaa !3
  %14 = getelementptr inbounds nuw %struct.hwloc_topology, ptr %13, i32 0, i32 31
  %15 = load ptr, ptr %14, align 8, !tbaa !8
  %16 = load i32, ptr %3, align 4, !tbaa !35
  %17 = zext i32 %16 to i64
  %18 = getelementptr inbounds nuw %struct.hwloc_internal_cpukind_s, ptr %15, i64 %17
  store ptr %18, ptr %5, align 8, !tbaa !36
  %19 = load ptr, ptr %5, align 8, !tbaa !36
  %20 = getelementptr inbounds nuw %struct.hwloc_internal_cpukind_s, ptr %19, i32 0, i32 0
  %21 = load ptr, ptr %20, align 8, !tbaa !37
  %22 = load ptr, ptr %5, align 8, !tbaa !36
  %23 = getelementptr inbounds nuw %struct.hwloc_internal_cpukind_s, ptr %22, i32 0, i32 0
  %24 = load ptr, ptr %23, align 8, !tbaa !37
  %25 = load ptr, ptr %2, align 8, !tbaa !3
  %26 = call ptr @hwloc_get_root_obj(ptr noundef %25) #16
  %27 = getelementptr inbounds nuw %struct.hwloc_obj, ptr %26, i32 0, i32 25
  %28 = load ptr, ptr %27, align 8, !tbaa !47
  %29 = call i32 @hwloc_bitmap_and(ptr noundef %21, ptr noundef %24, ptr noundef %28)
  %30 = load ptr, ptr %5, align 8, !tbaa !36
  %31 = getelementptr inbounds nuw %struct.hwloc_internal_cpukind_s, ptr %30, i32 0, i32 0
  %32 = load ptr, ptr %31, align 8, !tbaa !37
  %33 = call i32 @hwloc_bitmap_iszero(ptr noundef %32) #16
  %34 = icmp ne i32 %33, 0
  br i1 %34, label %35, label %58

35:                                               ; preds = %12
  %36 = load ptr, ptr %5, align 8, !tbaa !36
  %37 = getelementptr inbounds nuw %struct.hwloc_internal_cpukind_s, ptr %36, i32 0, i32 0
  %38 = load ptr, ptr %37, align 8, !tbaa !37
  call void @hwloc_bitmap_free(ptr noundef %38)
  %39 = load ptr, ptr %5, align 8, !tbaa !36
  %40 = getelementptr inbounds nuw %struct.hwloc_internal_cpukind_s, ptr %39, i32 0, i32 4
  call void @hwloc__free_infos(ptr noundef %40)
  %41 = load ptr, ptr %5, align 8, !tbaa !36
  %42 = load ptr, ptr %5, align 8, !tbaa !36
  %43 = getelementptr inbounds %struct.hwloc_internal_cpukind_s, ptr %42, i64 1
  %44 = load ptr, ptr %2, align 8, !tbaa !3
  %45 = getelementptr inbounds nuw %struct.hwloc_topology, ptr %44, i32 0, i32 29
  %46 = load i32, ptr %45, align 8, !tbaa !33
  %47 = load i32, ptr %3, align 4, !tbaa !35
  %48 = sub i32 %46, %47
  %49 = sub i32 %48, 1
  %50 = zext i32 %49 to i64
  %51 = mul i64 %50, 40
  call void @llvm.memmove.p0.p0.i64(ptr align 8 %41, ptr align 8 %43, i64 %51, i1 false)
  %52 = load i32, ptr %3, align 4, !tbaa !35
  %53 = add i32 %52, -1
  store i32 %53, ptr %3, align 4, !tbaa !35
  %54 = load ptr, ptr %2, align 8, !tbaa !3
  %55 = getelementptr inbounds nuw %struct.hwloc_topology, ptr %54, i32 0, i32 29
  %56 = load i32, ptr %55, align 8, !tbaa !33
  %57 = add i32 %56, -1
  store i32 %57, ptr %55, align 8, !tbaa !33
  store i32 1, ptr %4, align 4, !tbaa !35
  br label %58

58:                                               ; preds = %35, %12
  call void @llvm.lifetime.end.p0(i64 8, ptr %5) #14
  br label %59

59:                                               ; preds = %58
  %60 = load i32, ptr %3, align 4, !tbaa !35
  %61 = add i32 %60, 1
  store i32 %61, ptr %3, align 4, !tbaa !35
  br label %6, !llvm.loop !53

62:                                               ; preds = %6
  %63 = load i32, ptr %4, align 4, !tbaa !35
  %64 = icmp ne i32 %63, 0
  br i1 %64, label %65, label %68

65:                                               ; preds = %62
  %66 = load ptr, ptr %2, align 8, !tbaa !3
  %67 = call i32 @hwloc_internal_cpukinds_rank(ptr noundef %66)
  br label %68

68:                                               ; preds = %65, %62
  call void @llvm.lifetime.end.p0(i64 4, ptr %4) #14
  call void @llvm.lifetime.end.p0(i64 4, ptr %3) #14
  ret void
}