; Function Attrs: nounwind uwtable
define hidden void @hwloc_internal_cpukinds_restrict(ptr noundef %0) local_unnamed_addr #1 {
  %2 = getelementptr inbounds nuw i8, ptr %0, i64 760
  %3 = load i32, ptr %2, align 8, !tbaa !3
  %.not23 = icmp eq i32 %3, 0
  br i1 %.not23, label %._crit_edge.thread, label %.lr.ph

.lr.ph:                                           ; preds = %1
  %4 = getelementptr inbounds nuw i8, ptr %0, i64 768
  br label %.outer

.outer:                                           ; preds = %17, %.lr.ph
  %.022.ph = phi i32 [ %18, %17 ], [ 0, %.lr.ph ]
  %.01821.ph = phi i32 [ %.01821, %17 ], [ 0, %.lr.ph ]
  %5 = zext i32 %.022.ph to i64
  %6 = xor i32 %.022.ph, -1
  br label %7

7:                                                ; preds = %.outer, %.thread
  %.01821 = phi i32 [ 1, %.thread ], [ %.01821.ph, %.outer ]
  %8 = load ptr, ptr %4, align 8, !tbaa !31
  %9 = getelementptr inbounds nuw %struct.hwloc_internal_cpukind_s, ptr %8, i64 %5
  %10 = load ptr, ptr %9, align 8, !tbaa !32
  %11 = tail call ptr @hwloc_get_obj_by_depth(ptr noundef nonnull readonly %0, i32 noundef 0, i32 noundef 0) #24
  %12 = getelementptr inbounds nuw i8, ptr %11, i64 184
  %13 = load ptr, ptr %12, align 8, !tbaa !41
  %14 = tail call i32 @hwloc_bitmap_and(ptr noundef %10, ptr noundef %10, ptr noundef %13) #22
  %15 = load ptr, ptr %9, align 8, !tbaa !32
  %16 = tail call i32 @hwloc_bitmap_iszero(ptr noundef %15) #24
  %.not20 = icmp eq i32 %16, 0
  br i1 %.not20, label %17, label %.thread

17:                                               ; preds = %7
  %.pre = load i32, ptr %2, align 8, !tbaa !3
  %18 = add nuw i32 %.022.ph, 1
  %19 = icmp ult i32 %18, %.pre
  br i1 %19, label %.outer, label %._crit_edge, !llvm.loop !47

.thread:                                          ; preds = %7
  tail call void @hwloc_bitmap_free(ptr noundef %15) #22
  %20 = getelementptr inbounds nuw i8, ptr %9, i64 24
  tail call void @hwloc__free_infos(ptr noundef nonnull %20) #22
  %21 = getelementptr inbounds nuw i8, ptr %9, i64 40
  %22 = load i32, ptr %2, align 8, !tbaa !3
  %23 = add i32 %22, %6
  %24 = zext i32 %23 to i64
  %25 = mul nuw nsw i64 %24, 40
  tail call void @llvm.memmove.p0.p0.i64(ptr nonnull align 8 %9, ptr nonnull align 8 %21, i64 %25, i1 false)
  %26 = load i32, ptr %2, align 8, !tbaa !3
  %27 = add i32 %26, -1
  store i32 %27, ptr %2, align 8, !tbaa !3
  %28 = icmp ult i32 %.022.ph, %27
  br i1 %28, label %7, label %._crit_edge.thread29, !llvm.loop !47

._crit_edge:                                      ; preds = %17
  %29 = icmp eq i32 %.01821, 0
  br i1 %29, label %._crit_edge.thread, label %._crit_edge.thread29

._crit_edge.thread29:                             ; preds = %.thread, %._crit_edge
  %30 = tail call i32 @hwloc_internal_cpukinds_rank(ptr noundef nonnull %0)
  br label %._crit_edge.thread

._crit_edge.thread:                               ; preds = %1, %._crit_edge.thread29, %._crit_edge
  ret void
}